; Function Attrs: mustprogress nofree norecurse nounwind memory(readwrite, inaccessiblemem: none) uwtable
define hidden noundef i64 @_ZNK6google8protobuf8internal15ThreadSafeArena14SpaceAllocatedEv(ptr noundef nonnull readonly align 8 captures(none) dereferenceable(32) %0) local_unnamed_addr #14 align 2 personality ptr @__gxx_personality_v0 {
  %2 = getelementptr inbounds nuw i8, ptr %0, i64 16
  %3 = load atomic i64, ptr %2 acquire, align 8
  %.not6 = icmp eq i64 %3, 0
  br i1 %.not6, label %._crit_edge, label %.lr.ph.preheader

.lr.ph.preheader:                                 ; preds = %1
  %.0.i.i = inttoptr i64 %3 to ptr
  br label %.lr.ph

.lr.ph:                                           ; preds = %.lr.ph.preheader, %.lr.ph
  %.08 = phi i64 [ %6, %.lr.ph ], [ 0, %.lr.ph.preheader ]
  %.057 = phi ptr [ %8, %.lr.ph ], [ %.0.i.i, %.lr.ph.preheader ]
  %4 = getelementptr inbounds nuw i8, ptr %.057, i64 32
  %5 = load atomic i64, ptr %4 monotonic, align 8
  %6 = add i64 %5, %.08
  %7 = getelementptr inbounds nuw i8, ptr %.057, i64 16
  %8 = load ptr, ptr %7, align 8, !tbaa !41
  %.not = icmp eq ptr %8, null
  br i1 %.not, label %._crit_edge, label %.lr.ph, !llvm.loop !65

._crit_edge:                                      ; preds = %.lr.ph, %1
  %.0.lcssa = phi i64 [ 0, %1 ], [ %6, %.lr.ph ]
  ret i64 %.0.lcssa
}